target datalayout = "e-m:e-p270:32:32-p271:32:32-p272:64:64-i64:64-i128:128-f80:128-n8:16:32:64-S128"
target triple = "x86_64-pc-linux-gnu"

%struct.spawn_resp = type { i32, i32, ptr, i16, i32, ptr }
%struct.client_response = type { ptr }

@plugin_type = external constant [0 x i8], align 1
@.str.2 = private unnamed_addr constant [7 x i8] c"tree.c\00", align 1
@spawned_srun_ports_size = internal global i32 0, align 4
@spawned_srun_ports = internal global ptr null, align 8
@.str.39 = private unnamed_addr constant [40 x i8] c"%s: %s: mpi/pmi2: in _handle_spawn_resp\00", align 1
@__func__._handle_spawn_resp = private unnamed_addr constant [19 x i8] c"_handle_spawn_resp\00", align 1
@.str.40 = private unnamed_addr constant [51 x i8] c"mpi/pmi2: failed to unpack spawn response tree cmd\00", align 1
@.str.41 = private unnamed_addr constant [49 x i8] c"mpi/pmi2: spawn response not matched in psr list\00", align 1
@.str.42 = private unnamed_addr constant [47 x i8] c"%s: %s: mpi/pmi2: spawned tasks of %s launched\00", align 1
@.str.43 = private unnamed_addr constant [35 x i8] c"cmd=spawn-response;rc=%d;jobid=%s;\00", align 1
@.str.44 = private unnamed_addr constant [3 x i8] c"%d\00", align 1
@.str.45 = private unnamed_addr constant [4 x i8] c",%d\00", align 1
@.str.46 = private unnamed_addr constant [13 x i8] c"errcodes=%s;\00", align 1

; Function Attrs: nounwind uwtable
define internal i32 @_send_task_spawn_resp_pmi20(ptr noundef %0, i32 noundef %1, i32 noundef %2) #0 {
  %4 = alloca ptr, align 8
  %5 = alloca i32, align 4
  %6 = alloca i32, align 4
  %7 = alloca i32, align 4
  %8 = alloca i32, align 4
  %9 = alloca ptr, align 8
  %10 = alloca ptr, align 8
  store ptr %0, ptr %4, align 8
  store i32 %1, ptr %5, align 4
  store i32 %2, ptr %6, align 4
  call void @llvm.lifetime.start.p0(i64 4, ptr %7) #6
  call void @llvm.lifetime.start.p0(i64 4, ptr %8) #6
  call void @llvm.lifetime.start.p0(i64 8, ptr %9) #6
  call void @llvm.lifetime.start.p0(i64 8, ptr %10) #6
  store ptr null, ptr %10, align 8
  %11 = call ptr @client_resp_new()
  store ptr %11, ptr %9, align 8
  br label %12

12:                                               ; preds = %3
  %13 = load ptr, ptr %9, align 8
  %14 = getelementptr inbounds nuw %struct.client_response, ptr %13, i32 0, i32 0
  %15 = load ptr, ptr %4, align 8
  %16 = getelementptr inbounds nuw %struct.spawn_resp, ptr %15, i32 0, i32 1
  %17 = load i32, ptr %16, align 4
  %18 = load ptr, ptr %4, align 8
  %19 = getelementptr inbounds nuw %struct.spawn_resp, ptr %18, i32 0, i32 2
  %20 = load ptr, ptr %19, align 8
  call void (ptr, ptr, ...) @slurm_xstrfmtcat(ptr noundef %14, ptr noundef @.str.43, i32 noundef %17, ptr noundef %20)
  br label %21

21:                                               ; preds = %12
  br label %22

22:                                               ; preds = %21
  %23 = load ptr, ptr %4, align 8
  %24 = getelementptr inbounds nuw %struct.spawn_resp, ptr %23, i32 0, i32 1
  %25 = load i32, ptr %24, align 4
  %26 = icmp ne i32 %25, 0
  br i1 %26, label %27, label %31

27:                                               ; preds = %22
  %28 = load ptr, ptr %4, align 8
  %29 = getelementptr inbounds nuw %struct.spawn_resp, ptr %28, i32 0, i32 1
  %30 = load i32, ptr %29, align 4
  call void (ptr, ptr, ...) @slurm_xstrfmtcat(ptr noundef %10, ptr noundef @.str.44, i32 noundef %30)
  br label %31

31:                                               ; preds = %27, %22
  %32 = load ptr, ptr %4, align 8
  %33 = getelementptr inbounds nuw %struct.spawn_resp, ptr %32, i32 0, i32 4
  %34 = load i32, ptr %33, align 4
  %35 = icmp ugt i32 %34, 0
  br i1 %35, label %36, label %70

36:                                               ; preds = %31
  %37 = load ptr, ptr %10, align 8
  %38 = icmp ne ptr %37, null
  br i1 %38, label %39, label %45

39:                                               ; preds = %36
  %40 = load ptr, ptr %4, align 8
  %41 = getelementptr inbounds nuw %struct.spawn_resp, ptr %40, i32 0, i32 5
  %42 = load ptr, ptr %41, align 8
  %43 = getelementptr inbounds i32, ptr %42, i64 0
  %44 = load i32, ptr %43, align 4
  call void (ptr, ptr, ...) @slurm_xstrfmtcat(ptr noundef %10, ptr noundef @.str.45, i32 noundef %44)
  br label %51

45:                                               ; preds = %36
  %46 = load ptr, ptr %4, align 8
  %47 = getelementptr inbounds nuw %struct.spawn_resp, ptr %46, i32 0, i32 5
  %48 = load ptr, ptr %47, align 8
  %49 = getelementptr inbounds i32, ptr %48, i64 0
  %50 = load i32, ptr %49, align 4
  call void (ptr, ptr, ...) @slurm_xstrfmtcat(ptr noundef %10, ptr noundef @.str.44, i32 noundef %50)
  br label %51

51:                                               ; preds = %45, %39
  store i32 1, ptr %7, align 4
  br label %52

52:                                               ; preds = %66, %51
  %53 = load i32, ptr %7, align 4
  %54 = load ptr, ptr %4, align 8
  %55 = getelementptr inbounds nuw %struct.spawn_resp, ptr %54, i32 0, i32 4
  %56 = load i32, ptr %55, align 4
  %57 = icmp ult i32 %53, %56
  br i1 %57, label %58, label %69

58:                                               ; preds = %52
  %59 = load ptr, ptr %4, align 8
  %60 = getelementptr inbounds nuw %struct.spawn_resp, ptr %59, i32 0, i32 5
  %61 = load ptr, ptr %60, align 8
  %62 = load i32, ptr %7, align 4
  %63 = sext i32 %62 to i64
  %64 = getelementptr inbounds i32, ptr %61, i64 %63
  %65 = load i32, ptr %64, align 4
  call void (ptr, ptr, ...) @slurm_xstrfmtcat(ptr noundef %10, ptr noundef @.str.45, i32 noundef %65)
  br label %66

66:                                               ; preds = %58
  %67 = load i32, ptr %7, align 4
  %68 = add nsw i32 %67, 1
  store i32 %68, ptr %7, align 4
  br label %52, !llvm.loop !17

69:                                               ; preds = %52
  br label %70

70:                                               ; preds = %69, %31
  %71 = load ptr, ptr %10, align 8
  %72 = icmp ne ptr %71, null
  br i1 %72, label %73, label %80

73:                                               ; preds = %70
  br label %74

74:                                               ; preds = %73
  %75 = load ptr, ptr %9, align 8
  %76 = getelementptr inbounds nuw %struct.client_response, ptr %75, i32 0, i32 0
  %77 = load ptr, ptr %10, align 8
  call void (ptr, ptr, ...) @slurm_xstrfmtcat(ptr noundef %76, ptr noundef @.str.46, ptr noundef %77)
  br label %78

78:                                               ; preds = %74
  br label %79

79:                                               ; preds = %78
  call void @slurm_xfree(ptr noundef %10)
  br label %80

80:                                               ; preds = %79, %70
  %81 = load ptr, ptr %9, align 8
  %82 = load i32, ptr %5, align 4
  %83 = call i32 @client_resp_send(ptr noundef %81, i32 noundef %82)
  store i32 %83, ptr %8, align 4
  %84 = load ptr, ptr %9, align 8
  call void @client_resp_free(ptr noundef %84)
  %85 = load i32, ptr %8, align 4
  call void @llvm.lifetime.end.p0(i64 8, ptr %10) #6
  call void @llvm.lifetime.end.p0(i64 8, ptr %9) #6
  call void @llvm.lifetime.end.p0(i64 4, ptr %8) #6
  call void @llvm.lifetime.end.p0(i64 4, ptr %7) #6
  ret i32 %85
}

; Function Attrs: nounwind uwtable
define internal i32 @_handle_spawn_resp(i32 noundef %0, ptr noundef %1) #0 {
  %3 = alloca i32, align 4
  %4 = alloca i32, align 4
  %5 = alloca ptr, align 8
  %6 = alloca i32, align 4
  %7 = alloca i32, align 4
  %8 = alloca i32, align 4
  %9 = alloca ptr, align 8
  %10 = alloca ptr, align 8
  %11 = alloca i32, align 4
  store i32 %0, ptr %4, align 4
  store ptr %1, ptr %5, align 8
  call void @llvm.lifetime.start.p0(i64 4, ptr %6) #6
  call void @llvm.lifetime.start.p0(i64 4, ptr %7) #6
  call void @llvm.lifetime.start.p0(i64 4, ptr %8) #6
  call void @llvm.lifetime.start.p0(i64 8, ptr %9) #6
  call void @llvm.lifetime.start.p0(i64 8, ptr %10) #6
  store ptr null, ptr %10, align 8
  br label %12

12:                                               ; preds = %2
  br label %13

13:                                               ; preds = %12
  %14 = call i32 @slurm_get_log_level()
  %15 = icmp sge i32 %14, 7
  br i1 %15, label %16, label %17

16:                                               ; preds = %13
  call void (i32, ptr, ...) @slurm_log_var(i32 noundef 7, ptr noundef @.str.39, ptr noundef @plugin_type, ptr noundef @__func__._handle_spawn_resp)
  br label %17

17:                                               ; preds = %16, %13
  br label %18

18:                                               ; preds = %17
  br label %19

19:                                               ; preds = %18
  br label %20

20:                                               ; preds = %19
  br label %21

21:                                               ; preds = %20
  %22 = load ptr, ptr %5, align 8
  %23 = call i32 @spawn_resp_unpack(ptr noundef %9, ptr noundef %22)
  store i32 %23, ptr %6, align 4
  %24 = load i32, ptr %6, align 4
  %25 = icmp ne i32 %24, 0
  br i1 %25, label %26, label %28

26:                                               ; preds = %21
  %27 = call i32 (ptr, ...) @slurm_error(ptr noundef @.str.40)
  store i32 -1, ptr %3, align 4
  store i32 1, ptr %11, align 4
  br label %109

28:                                               ; preds = %21
  %29 = load ptr, ptr %9, align 8
  %30 = getelementptr inbounds nuw %struct.spawn_resp, ptr %29, i32 0, i32 0
  %31 = load i32, ptr %30, align 8
  %32 = call i32 @spawn_psr_dequeue(i32 noundef %31, ptr noundef %7, ptr noundef %8, ptr noundef %10)
  store i32 %32, ptr %6, align 4
  %33 = load i32, ptr %6, align 4
  %34 = icmp ne i32 %33, 0
  br i1 %34, label %35, label %37

35:                                               ; preds = %28
  %36 = call i32 (ptr, ...) @slurm_error(ptr noundef @.str.41)
  store i32 -1, ptr %3, align 4
  store i32 1, ptr %11, align 4
  br label %109

37:                                               ; preds = %28
  %38 = load ptr, ptr %10, align 8
  %39 = icmp eq ptr %38, null
  br i1 %39, label %40, label %71

40:                                               ; preds = %37
  br label %41

41:                                               ; preds = %40
  br label %42

42:                                               ; preds = %41
  %43 = call i32 @slurm_get_log_level()
  %44 = icmp sge i32 %43, 7
  br i1 %44, label %45, label %49

45:                                               ; preds = %42
  %46 = load ptr, ptr %9, align 8
  %47 = getelementptr inbounds nuw %struct.spawn_resp, ptr %46, i32 0, i32 2
  %48 = load ptr, ptr %47, align 8
  call void (i32, ptr, ...) @slurm_log_var(i32 noundef 7, ptr noundef @.str.42, ptr noundef @plugin_type, ptr noundef @__func__._handle_spawn_resp, ptr noundef %48)
  br label %49

49:                                               ; preds = %45, %42
  br label %50

50:                                               ; preds = %49
  br label %51

51:                                               ; preds = %50
  br label %52

52:                                               ; preds = %51
  br label %53

53:                                               ; preds = %52
  %54 = call i32 @is_pmi20()
  %55 = icmp ne i32 %54, 0
  br i1 %55, label %56, label %61

56:                                               ; preds = %53
  %57 = load ptr, ptr %9, align 8
  %58 = load i32, ptr %7, align 4
  %59 = load i32, ptr %8, align 4
  %60 = call i32 @_send_task_spawn_resp_pmi20(ptr noundef %57, i32 noundef %58, i32 noundef %59)
  br label %70

61:                                               ; preds = %53
  %62 = call i32 @is_pmi11()
  %63 = icmp ne i32 %62, 0
  br i1 %63, label %64, label %69

64:                                               ; preds = %61
  %65 = load ptr, ptr %9, align 8
  %66 = load i32, ptr %7, align 4
  %67 = load i32, ptr %8, align 4
  %68 = call i32 @_send_task_spawn_resp_pmi11(ptr noundef %65, i32 noundef %66, i32 noundef %67)
  br label %69

69:                                               ; preds = %64, %61
  br label %70

70:                                               ; preds = %69, %56
  br label %106

71:                                               ; preds = %37
  br label %72

72:                                               ; preds = %71
  br label %73

73:                                               ; preds = %72
  %74 = call i32 @slurm_get_log_level()
  %75 = icmp sge i32 %74, 7
  br i1 %75, label %76, label %80

76:                                               ; preds = %73
  %77 = load ptr, ptr %9, align 8
  %78 = getelementptr inbounds nuw %struct.spawn_resp, ptr %77, i32 0, i32 2
  %79 = load ptr, ptr %78, align 8
  call void (i32, ptr, ...) @slurm_log_var(i32 noundef 7, ptr noundef @.str.42, ptr noundef @plugin_type, ptr noundef @__func__._handle_spawn_resp, ptr noundef %79)
  br label %80

80:                                               ; preds = %76, %73
  br label %81

81:                                               ; preds = %80
  br label %82

82:                                               ; preds = %81
  br label %83

83:                                               ; preds = %82
  br label %84

84:                                               ; preds = %83
  %85 = load ptr, ptr %9, align 8
  %86 = getelementptr inbounds nuw %struct.spawn_resp, ptr %85, i32 0, i32 0
  %87 = load i32, ptr %86, align 8
  %88 = zext i32 %87 to i64
  %89 = mul i64 %88, 2
  %90 = call ptr @slurm_xrecalloc(ptr noundef @spawned_srun_ports, i64 noundef 1, i64 noundef %89, i1 noundef zeroext true, i1 noundef zeroext false, ptr noundef @.str.2, i32 noundef 393, ptr noundef @__func__._handle_spawn_resp)
  store ptr %90, ptr @spawned_srun_ports, align 8
  %91 = load ptr, ptr %9, align 8
  %92 = getelementptr inbounds nuw %struct.spawn_resp, ptr %91, i32 0, i32 0
  %93 = load i32, ptr %92, align 8
  store i32 %93, ptr @spawned_srun_ports_size, align 4
  %94 = load ptr, ptr %9, align 8
  %95 = getelementptr inbounds nuw %struct.spawn_resp, ptr %94, i32 0, i32 3
  %96 = load i16, ptr %95, align 8
  %97 = load ptr, ptr @spawned_srun_ports, align 8
  %98 = load ptr, ptr %9, align 8
  %99 = getelementptr inbounds nuw %struct.spawn_resp, ptr %98, i32 0, i32 0
  %100 = load i32, ptr %99, align 8
  %101 = sub i32 %100, 1
  %102 = zext i32 %101 to i64
  %103 = getelementptr inbounds nuw i16, ptr %97, i64 %102
  store i16 %96, ptr %103, align 2
  %104 = load ptr, ptr %9, align 8
  %105 = call i32 @spawn_resp_send_to_stepd(ptr noundef %104, ptr noundef %10)
  call void @slurm_xfree(ptr noundef %10)
  br label %106

106:                                              ; preds = %84, %70
  %107 = load ptr, ptr %9, align 8
  call void @spawn_resp_free(ptr noundef %107)
  %108 = load i32, ptr %6, align 4
  store i32 %108, ptr %3, align 4
  store i32 1, ptr %11, align 4
  br label %109

109:                                              ; preds = %106, %35, %26
  call void @llvm.lifetime.end.p0(i64 8, ptr %10) #6
  call void @llvm.lifetime.end.p0(i64 8, ptr %9) #6
  call void @llvm.lifetime.end.p0(i64 4, ptr %8) #6
  call void @llvm.lifetime.end.p0(i64 4, ptr %7) #6
  call void @llvm.lifetime.end.p0(i64 4, ptr %6) #6
  %110 = load i32, ptr %3, align 4
  ret i32 %110
}