; Function Attrs: nounwind uwtable
define internal range(i32 -1, 1) i32 @_handle_spawn_resp(i32 %0, ptr noundef %1) #0 {
  %3 = alloca ptr, align 8
  %4 = alloca i32, align 4
  %5 = alloca i32, align 4
  %6 = alloca ptr, align 8
  %7 = alloca ptr, align 8
  call void @llvm.lifetime.start.p0(i64 4, ptr nonnull %4) #7
  call void @llvm.lifetime.start.p0(i64 4, ptr nonnull %5) #7
  call void @llvm.lifetime.start.p0(i64 8, ptr nonnull %6) #7
  call void @llvm.lifetime.start.p0(i64 8, ptr nonnull %7) #7
  store ptr null, ptr %7, align 8
  %8 = tail call i32 @slurm_get_log_level() #7
  %9 = icmp sgt i32 %8, 6
  br i1 %9, label %10, label %11

10:                                               ; preds = %2
  tail call void (i32, ptr, ...) @slurm_log_var(i32 noundef 7, ptr noundef nonnull @.str.39, ptr noundef nonnull @plugin_type, ptr noundef nonnull @__func__._handle_spawn_resp) #7
  br label %11

11:                                               ; preds = %10, %2
  %12 = call i32 @spawn_resp_unpack(ptr noundef nonnull %6, ptr noundef %1) #7
  %.not = icmp eq i32 %12, 0
  br i1 %.not, label %15, label %13

13:                                               ; preds = %11
  %14 = call i32 (ptr, ...) @slurm_error(ptr noundef nonnull @.str.40) #7
  br label %89

15:                                               ; preds = %11
  %16 = load ptr, ptr %6, align 8
  %17 = load i32, ptr %16, align 8
  %18 = call i32 @spawn_psr_dequeue(i32 noundef %17, ptr noundef nonnull %4, ptr noundef nonnull %5, ptr noundef nonnull %7) #7
  %.not5 = icmp eq i32 %18, 0
  br i1 %.not5, label %21, label %19

19:                                               ; preds = %15
  %20 = call i32 (ptr, ...) @slurm_error(ptr noundef nonnull @.str.41) #7
  br label %89

21:                                               ; preds = %15
  %22 = load ptr, ptr %7, align 8
  %23 = icmp eq ptr %22, null
  %24 = call i32 @slurm_get_log_level() #7
  %25 = icmp sgt i32 %24, 6
  br i1 %23, label %26, label %67

26:                                               ; preds = %21
  br i1 %25, label %27, label %31

27:                                               ; preds = %26
  %28 = load ptr, ptr %6, align 8
  %29 = getelementptr inbounds nuw i8, ptr %28, i64 8
  %30 = load ptr, ptr %29, align 8
  call void (i32, ptr, ...) @slurm_log_var(i32 noundef 7, ptr noundef nonnull @.str.42, ptr noundef nonnull @plugin_type, ptr noundef nonnull @__func__._handle_spawn_resp, ptr noundef %30) #7
  br label %31

31:                                               ; preds = %27, %26
  %32 = call i32 @is_pmi20() #7
  %.not6 = icmp eq i32 %32, 0
  br i1 %.not6, label %62, label %33

33:                                               ; preds = %31
  %34 = load ptr, ptr %6, align 8
  %35 = load i32, ptr %4, align 4
  call void @llvm.lifetime.start.p0(i64 8, ptr nonnull %3) #7
  store ptr null, ptr %3, align 8
  %36 = call ptr @client_resp_new() #7
  %37 = getelementptr inbounds nuw i8, ptr %34, i64 4
  %38 = load i32, ptr %37, align 4
  %39 = getelementptr inbounds nuw i8, ptr %34, i64 8
  %40 = load ptr, ptr %39, align 8
  call void (ptr, ptr, ...) @slurm_xstrfmtcat(ptr noundef %36, ptr noundef nonnull @.str.43, i32 noundef %38, ptr noundef %40) #7
  %41 = load i32, ptr %37, align 4
  %.not.i = icmp eq i32 %41, 0
  br i1 %.not.i, label %43, label %42

42:                                               ; preds = %33
  call void (ptr, ptr, ...) @slurm_xstrfmtcat(ptr noundef nonnull %3, ptr noundef nonnull @.str.44, i32 noundef %41) #7
  br label %43

43:                                               ; preds = %42, %33
  %44 = getelementptr inbounds nuw i8, ptr %34, i64 20
  %45 = load i32, ptr %44, align 4
  %.not19.i = icmp eq i32 %45, 0
  br i1 %.not19.i, label %.loopexit.i, label %46

46:                                               ; preds = %43
  %47 = load ptr, ptr %3, align 8
  %.not20.i = icmp eq ptr %47, null
  %48 = getelementptr inbounds nuw i8, ptr %34, i64 24
  %49 = load ptr, ptr %48, align 8
  %50 = load i32, ptr %49, align 4
  %.str.44..str.45.i = select i1 %.not20.i, ptr @.str.44, ptr @.str.45
  call void (ptr, ptr, ...) @slurm_xstrfmtcat(ptr noundef nonnull %3, ptr noundef nonnull %.str.44..str.45.i, i32 noundef %50) #7
  %51 = load i32, ptr %44, align 4
  %52 = icmp ugt i32 %51, 1
  br i1 %52, label %.lr.ph.i, label %.loopexit.i

.lr.ph.i:                                         ; preds = %46, %.lr.ph.i
  %indvars.iv.i = phi i64 [ %indvars.iv.next.i, %.lr.ph.i ], [ 1, %46 ]
  %53 = load ptr, ptr %48, align 8
  %54 = getelementptr inbounds nuw i32, ptr %53, i64 %indvars.iv.i
  %55 = load i32, ptr %54, align 4
  call void (ptr, ptr, ...) @slurm_xstrfmtcat(ptr noundef nonnull %3, ptr noundef nonnull @.str.45, i32 noundef %55) #7
  %indvars.iv.next.i = add nuw nsw i64 %indvars.iv.i, 1
  %56 = load i32, ptr %44, align 4
  %57 = zext i32 %56 to i64
  %58 = icmp samesign ult i64 %indvars.iv.next.i, %57
  br i1 %58, label %.lr.ph.i, label %.loopexit.i, !llvm.loop !17

.loopexit.i:                                      ; preds = %.lr.ph.i, %46, %43
  %59 = load ptr, ptr %3, align 8
  %.not21.i = icmp eq ptr %59, null
  br i1 %.not21.i, label %_send_task_spawn_resp_pmi20.exit, label %60

60:                                               ; preds = %.loopexit.i
  call void (ptr, ptr, ...) @slurm_xstrfmtcat(ptr noundef %36, ptr noundef nonnull @.str.46, ptr noundef nonnull %59) #7
  call void @slurm_xfree(ptr noundef nonnull %3) #7
  br label %_send_task_spawn_resp_pmi20.exit

_send_task_spawn_resp_pmi20.exit:                 ; preds = %.loopexit.i, %60
  %61 = call i32 @client_resp_send(ptr noundef %36, i32 noundef %35) #7
  call void @client_resp_free(ptr noundef %36) #7
  call void @llvm.lifetime.end.p0(i64 8, ptr nonnull %3) #7
  br label %87

62:                                               ; preds = %31
  %63 = call i32 @is_pmi11() #7
  %.not7 = icmp eq i32 %63, 0
  br i1 %.not7, label %87, label %64

64:                                               ; preds = %62
  %65 = load ptr, ptr %6, align 8
  %66 = load i32, ptr %4, align 4
  call fastcc void @_send_task_spawn_resp_pmi11(ptr noundef %65, i32 noundef %66)
  br label %87

67:                                               ; preds = %21
  br i1 %25, label %68, label %72

68:                                               ; preds = %67
  %69 = load ptr, ptr %6, align 8
  %70 = getelementptr inbounds nuw i8, ptr %69, i64 8
  %71 = load ptr, ptr %70, align 8
  call void (i32, ptr, ...) @slurm_log_var(i32 noundef 7, ptr noundef nonnull @.str.42, ptr noundef nonnull @plugin_type, ptr noundef nonnull @__func__._handle_spawn_resp, ptr noundef %71) #7
  br label %72

72:                                               ; preds = %68, %67
  %73 = load ptr, ptr %6, align 8
  %74 = load i32, ptr %73, align 8
  %75 = zext i32 %74 to i64
  %76 = shl nuw nsw i64 %75, 1
  %77 = call ptr @slurm_xrecalloc(ptr noundef nonnull @spawned_srun_ports, i64 noundef 1, i64 noundef %76, i1 noundef zeroext true, i1 noundef zeroext false, ptr noundef nonnull @.str.2, i32 noundef 393, ptr noundef nonnull @__func__._handle_spawn_resp) #7
  store ptr %77, ptr @spawned_srun_ports, align 8
  %78 = load ptr, ptr %6, align 8
  %79 = load i32, ptr %78, align 8
  store i32 %79, ptr @spawned_srun_ports_size, align 4
  %80 = getelementptr inbounds nuw i8, ptr %78, i64 16
  %81 = load i16, ptr %80, align 8
  %82 = add i32 %79, -1
  %83 = zext i32 %82 to i64
  %84 = getelementptr inbounds nuw i16, ptr %77, i64 %83
  store i16 %81, ptr %84, align 2
  %85 = load ptr, ptr %6, align 8
  %86 = call i32 @spawn_resp_send_to_stepd(ptr noundef %85, ptr noundef nonnull %7) #7
  call void @slurm_xfree(ptr noundef nonnull %7) #7
  br label %87

87:                                               ; preds = %_send_task_spawn_resp_pmi20.exit, %64, %62, %72
  %88 = load ptr, ptr %6, align 8
  call void @spawn_resp_free(ptr noundef %88) #7
  br label %89

89:                                               ; preds = %87, %19, %13
  %.0 = phi i32 [ -1, %13 ], [ -1, %19 ], [ 0, %87 ]
  call void @llvm.lifetime.end.p0(i64 8, ptr nonnull %7) #7
  call void @llvm.lifetime.end.p0(i64 8, ptr nonnull %6) #7
  call void @llvm.lifetime.end.p0(i64 4, ptr nonnull %5) #7
  call void @llvm.lifetime.end.p0(i64 4, ptr nonnull %4) #7
  ret i32 %.0
}